target datalayout = "e-m:e-p270:32:32-p271:32:32-p272:64:64-i64:64-i128:128-f80:128-n8:16:32:64-S128"
target triple = "x86_64-pc-linux-gnu"

%struct.Elf64_Shdr = type { i32, i32, i64, i64, i64, i64, i32, i32, i64, i64 }
%struct.Elf64_Sym = type { i32, i8, i8, i16, i64, i64 }

@rt_sigreturn_sym = internal global ptr null, align 8
@sigreturn_sym = internal global ptr null, align 8
@sigreturn_addr = internal global i32 0, align 4
@rt_sigreturn_addr = internal global i32 0, align 4

; Function Attrs: nounwind uwtable
define internal void @elf64_bswap_sym(ptr noundef %0) #0 {
  %2 = alloca ptr, align 8
  store ptr %0, ptr %2, align 8, !tbaa !24
  %3 = load ptr, ptr %2, align 8, !tbaa !24
  %4 = getelementptr inbounds nuw %struct.Elf64_Sym, ptr %3, i32 0, i32 0
  %5 = load i32, ptr %4, align 8, !tbaa !115
  %6 = call i32 @llvm.bswap.i32(i32 %5)
  %7 = load ptr, ptr %2, align 8, !tbaa !24
  %8 = getelementptr inbounds nuw %struct.Elf64_Sym, ptr %7, i32 0, i32 0
  store i32 %6, ptr %8, align 8, !tbaa !115
  %9 = load ptr, ptr %2, align 8, !tbaa !24
  %10 = getelementptr inbounds nuw %struct.Elf64_Sym, ptr %9, i32 0, i32 4
  %11 = load i64, ptr %10, align 8, !tbaa !117
  %12 = call i64 @llvm.bswap.i64(i64 %11)
  %13 = load ptr, ptr %2, align 8, !tbaa !24
  %14 = getelementptr inbounds nuw %struct.Elf64_Sym, ptr %13, i32 0, i32 4
  store i64 %12, ptr %14, align 8, !tbaa !117
  %15 = load ptr, ptr %2, align 8, !tbaa !24
  %16 = getelementptr inbounds nuw %struct.Elf64_Sym, ptr %15, i32 0, i32 5
  %17 = load i64, ptr %16, align 8, !tbaa !127
  %18 = call i64 @llvm.bswap.i64(i64 %17)
  %19 = load ptr, ptr %2, align 8, !tbaa !24
  %20 = getelementptr inbounds nuw %struct.Elf64_Sym, ptr %19, i32 0, i32 5
  store i64 %18, ptr %20, align 8, !tbaa !127
  %21 = load ptr, ptr %2, align 8, !tbaa !24
  %22 = getelementptr inbounds nuw %struct.Elf64_Sym, ptr %21, i32 0, i32 3
  %23 = load i16, ptr %22, align 2, !tbaa !128
  %24 = call i16 @llvm.bswap.i16(i16 %23)
  %25 = load ptr, ptr %2, align 8, !tbaa !24
  %26 = getelementptr inbounds nuw %struct.Elf64_Sym, ptr %25, i32 0, i32 3
  store i16 %24, ptr %26, align 2, !tbaa !128
  ret void
}

; Function Attrs: nounwind uwtable
define internal void @elf64_search_symtab(ptr noundef %0, i32 noundef %1, ptr noundef %2, i1 noundef zeroext %3) #0 {
  %5 = alloca ptr, align 8
  %6 = alloca i32, align 4
  %7 = alloca ptr, align 8
  %8 = alloca i8, align 1
  %9 = alloca i32, align 4
  %10 = alloca ptr, align 8
  %11 = alloca i32, align 4
  %12 = alloca ptr, align 8
  %13 = alloca i32, align 4
  %14 = alloca ptr, align 8
  %15 = alloca %struct.Elf64_Sym, align 8
  store ptr %0, ptr %5, align 8, !tbaa !24
  store i32 %1, ptr %6, align 4, !tbaa !4
  store ptr %2, ptr %7, align 8, !tbaa !24
  %16 = zext i1 %3 to i8
  store i8 %16, ptr %8, align 1, !tbaa !18
  call void @llvm.lifetime.start.p0(i64 4, ptr %9) #10
  %17 = load ptr, ptr %5, align 8, !tbaa !24
  %18 = load i32, ptr %6, align 4, !tbaa !4
  %19 = zext i32 %18 to i64
  %20 = getelementptr inbounds nuw %struct.Elf64_Shdr, ptr %17, i64 %19
  %21 = getelementptr inbounds nuw %struct.Elf64_Shdr, ptr %20, i32 0, i32 6
  %22 = load i32, ptr %21, align 8, !tbaa !114
  store i32 %22, ptr %9, align 4, !tbaa !4
  call void @llvm.lifetime.start.p0(i64 8, ptr %10) #10
  %23 = load ptr, ptr %7, align 8, !tbaa !24
  %24 = load ptr, ptr %5, align 8, !tbaa !24
  %25 = load i32, ptr %6, align 4, !tbaa !4
  %26 = zext i32 %25 to i64
  %27 = getelementptr inbounds nuw %struct.Elf64_Shdr, ptr %24, i64 %26
  %28 = getelementptr inbounds nuw %struct.Elf64_Shdr, ptr %27, i32 0, i32 4
  %29 = load i64, ptr %28, align 8, !tbaa !75
  %30 = getelementptr inbounds nuw i8, ptr %23, i64 %29
  store ptr %30, ptr %10, align 8, !tbaa !24
  call void @llvm.lifetime.start.p0(i64 4, ptr %11) #10
  %31 = load ptr, ptr %5, align 8, !tbaa !24
  %32 = load i32, ptr %6, align 4, !tbaa !4
  %33 = zext i32 %32 to i64
  %34 = getelementptr inbounds nuw %struct.Elf64_Shdr, ptr %31, i64 %33
  %35 = getelementptr inbounds nuw %struct.Elf64_Shdr, ptr %34, i32 0, i32 5
  %36 = load i64, ptr %35, align 8, !tbaa !76
  %37 = udiv i64 %36, 24
  %38 = trunc i64 %37 to i32
  store i32 %38, ptr %11, align 4, !tbaa !4
  call void @llvm.lifetime.start.p0(i64 8, ptr %12) #10
  %39 = load ptr, ptr %7, align 8, !tbaa !24
  %40 = load ptr, ptr %5, align 8, !tbaa !24
  %41 = load i32, ptr %9, align 4, !tbaa !4
  %42 = zext i32 %41 to i64
  %43 = getelementptr inbounds nuw %struct.Elf64_Shdr, ptr %40, i64 %42
  %44 = getelementptr inbounds nuw %struct.Elf64_Shdr, ptr %43, i32 0, i32 4
  %45 = load i64, ptr %44, align 8, !tbaa !75
  %46 = getelementptr inbounds nuw i8, ptr %39, i64 %45
  store ptr %46, ptr %12, align 8, !tbaa !11
  call void @llvm.lifetime.start.p0(i64 4, ptr %13) #10
  store i32 0, ptr %13, align 4, !tbaa !4
  br label %47

47:                                               ; preds = %90, %4
  %48 = load i32, ptr %13, align 4, !tbaa !4
  %49 = load i32, ptr %11, align 4, !tbaa !4
  %50 = icmp ult i32 %48, %49
  br i1 %50, label %52, label %51

51:                                               ; preds = %47
  call void @llvm.lifetime.end.p0(i64 4, ptr %13) #10
  br label %93

52:                                               ; preds = %47
  call void @llvm.lifetime.start.p0(i64 8, ptr %14) #10
  call void @llvm.lifetime.start.p0(i64 24, ptr %15) #10
  %53 = load ptr, ptr %10, align 8, !tbaa !24
  %54 = load i32, ptr %13, align 4, !tbaa !4
  %55 = zext i32 %54 to i64
  %56 = getelementptr inbounds nuw %struct.Elf64_Sym, ptr %53, i64 %55
  call void @llvm.memcpy.p0.p0.i64(ptr align 8 %15, ptr align 8 %56, i64 24, i1 false)
  %57 = load i8, ptr %8, align 1, !tbaa !18, !range !20, !noundef !21
  %58 = trunc i8 %57 to i1
  br i1 %58, label %59, label %60

59:                                               ; preds = %52
  call void @elf64_bswap_sym(ptr noundef %15)
  br label %60

60:                                               ; preds = %59, %52
  %61 = load ptr, ptr %12, align 8, !tbaa !11
  %62 = getelementptr inbounds nuw %struct.Elf64_Sym, ptr %15, i32 0, i32 0
  %63 = load i32, ptr %62, align 8, !tbaa !115
  %64 = zext i32 %63 to i64
  %65 = getelementptr inbounds nuw i8, ptr %61, i64 %64
  store ptr %65, ptr %14, align 8, !tbaa !11
  %66 = load ptr, ptr @sigreturn_sym, align 8, !tbaa !11
  %67 = icmp ne ptr %66, null
  br i1 %67, label %68, label %77

68:                                               ; preds = %60
  %69 = load ptr, ptr @sigreturn_sym, align 8, !tbaa !11
  %70 = load ptr, ptr %14, align 8, !tbaa !11
  %71 = call i32 @strcmp(ptr noundef %69, ptr noundef %70) #14
  %72 = icmp eq i32 %71, 0
  br i1 %72, label %73, label %77

73:                                               ; preds = %68
  %74 = getelementptr inbounds nuw %struct.Elf64_Sym, ptr %15, i32 0, i32 4
  %75 = load i64, ptr %74, align 8, !tbaa !117
  %76 = trunc i64 %75 to i32
  store i32 %76, ptr @sigreturn_addr, align 4, !tbaa !4
  br label %77

77:                                               ; preds = %73, %68, %60
  %78 = load ptr, ptr @rt_sigreturn_sym, align 8, !tbaa !11
  %79 = icmp ne ptr %78, null
  br i1 %79, label %80, label %89

80:                                               ; preds = %77
  %81 = load ptr, ptr @rt_sigreturn_sym, align 8, !tbaa !11
  %82 = load ptr, ptr %14, align 8, !tbaa !11
  %83 = call i32 @strcmp(ptr noundef %81, ptr noundef %82) #14
  %84 = icmp eq i32 %83, 0
  br i1 %84, label %85, label %89

85:                                               ; preds = %80
  %86 = getelementptr inbounds nuw %struct.Elf64_Sym, ptr %15, i32 0, i32 4
  %87 = load i64, ptr %86, align 8, !tbaa !117
  %88 = trunc i64 %87 to i32
  store i32 %88, ptr @rt_sigreturn_addr, align 4, !tbaa !4
  br label %89

89:                                               ; preds = %85, %80, %77
  call void @llvm.lifetime.end.p0(i64 24, ptr %15) #10
  call void @llvm.lifetime.end.p0(i64 8, ptr %14) #10
  br label %90

90:                                               ; preds = %89
  %91 = load i32, ptr %13, align 4, !tbaa !4
  %92 = add i32 %91, 1
  store i32 %92, ptr %13, align 4, !tbaa !4
  br label %47, !llvm.loop !118

93:                                               ; preds = %51
  call void @llvm.lifetime.end.p0(i64 8, ptr %12) #10
  call void @llvm.lifetime.end.p0(i64 4, ptr %11) #10
  call void @llvm.lifetime.end.p0(i64 8, ptr %10) #10
  call void @llvm.lifetime.end.p0(i64 4, ptr %9) #10
  ret void
}