; Function Attrs: nofree nounwind memory(readwrite, argmem: read, inaccessiblemem: none) uwtable
define internal fastcc void @elf64_search_symtab(ptr noundef nonnull readonly captures(none) %0, i32 noundef range(i32 1, 0) %1, ptr noundef nonnull readonly captures(none) %2, i1 noundef zeroext %3) unnamed_addr #7 {
  %5 = zext i32 %1 to i64
  %6 = getelementptr inbounds nuw %struct.Elf64_Shdr, ptr %0, i64 %5
  %7 = getelementptr inbounds nuw i8, ptr %6, i64 40
  %8 = load i32, ptr %7, align 8, !tbaa !101
  %9 = getelementptr inbounds nuw i8, ptr %6, i64 24
  %10 = load i64, ptr %9, align 8, !tbaa !78
  %11 = getelementptr inbounds nuw i8, ptr %2, i64 %10
  %12 = getelementptr inbounds nuw i8, ptr %6, i64 32
  %13 = load i64, ptr %12, align 8, !tbaa !79
  %14 = udiv i64 %13, 24
  %15 = zext i32 %8 to i64
  %16 = getelementptr inbounds nuw %struct.Elf64_Shdr, ptr %0, i64 %15, i32 4
  %17 = load i64, ptr %16, align 8, !tbaa !78
  %18 = getelementptr inbounds nuw i8, ptr %2, i64 %17
  %19 = and i64 %14, 4294967295
  %.not37 = icmp eq i64 %19, 0
  br i1 %.not37, label %._crit_edge, label %.lr.ph

.lr.ph:                                           ; preds = %4
  %20 = load ptr, ptr @sigreturn_sym, align 8, !tbaa !4
  %.not = icmp eq ptr %20, null
  %21 = load ptr, ptr @rt_sigreturn_sym, align 8, !tbaa !4
  %.not20 = icmp eq ptr %21, null
  br i1 %.not, label %.lr.ph.split.us, label %.lr.ph.split

.lr.ph.split.us:                                  ; preds = %.lr.ph
  br i1 %.not20, label %._crit_edge, label %.lr.ph.split.us.split.preheader

.lr.ph.split.us.split.preheader:                  ; preds = %.lr.ph.split.us
  %wide.trip.count62 = and i64 %14, 4294967295
  br label %.lr.ph.split.us.split

.lr.ph.split.us.split:                            ; preds = %.lr.ph.split.us.split.preheader, %31
  %indvars.iv59 = phi i64 [ 0, %.lr.ph.split.us.split.preheader ], [ %indvars.iv.next60, %31 ]
  %22 = getelementptr inbounds nuw %struct.Elf64_Sym, ptr %11, i64 %indvars.iv59
  %.sroa.0.0.copyload.us = load i32, ptr %22, align 8
  %23 = tail call i32 @llvm.bswap.i32(i32 %.sroa.0.0.copyload.us)
  %.sroa.0.0.us = select i1 %3, i32 %23, i32 %.sroa.0.0.copyload.us
  %24 = zext i32 %.sroa.0.0.us to i64
  %25 = getelementptr inbounds nuw i8, ptr %18, i64 %24
  %26 = tail call i32 @strcmp(ptr noundef nonnull dereferenceable(1) %21, ptr noundef nonnull dereferenceable(1) %25) #17
  %27 = icmp eq i32 %26, 0
  br i1 %27, label %28, label %31

28:                                               ; preds = %.lr.ph.split.us.split
  %.sroa.8.0..sroa_idx.us = getelementptr inbounds nuw i8, ptr %22, i64 8
  %.sroa.8.0.copyload.us = load i64, ptr %.sroa.8.0..sroa_idx.us, align 8
  %29 = tail call i64 @llvm.bswap.i64(i64 %.sroa.8.0.copyload.us)
  %.sroa.8.0.us = select i1 %3, i64 %29, i64 %.sroa.8.0.copyload.us
  %30 = trunc i64 %.sroa.8.0.us to i32
  store i32 %30, ptr @rt_sigreturn_addr, align 4, !tbaa !11
  br label %31

31:                                               ; preds = %28, %.lr.ph.split.us.split
  %indvars.iv.next60 = add nuw nsw i64 %indvars.iv59, 1
  %exitcond63.not = icmp eq i64 %indvars.iv.next60, %wide.trip.count62
  br i1 %exitcond63.not, label %._crit_edge, label %.lr.ph.split.us.split, !llvm.loop !106

.lr.ph.split:                                     ; preds = %.lr.ph
  %wide.trip.count57 = and i64 %14, 4294967295
  br i1 %.not20, label %.lr.ph.split.split.us, label %.lr.ph.split.split

.lr.ph.split.split.us:                            ; preds = %.lr.ph.split
  br i1 %3, label %.lr.ph.split.split.us.split.us, label %.lr.ph.split.split.us.split

.lr.ph.split.split.us.split.us:                   ; preds = %.lr.ph.split.split.us, %41
  %indvars.iv54 = phi i64 [ %indvars.iv.next55, %41 ], [ 0, %.lr.ph.split.split.us ]
  %32 = getelementptr inbounds nuw %struct.Elf64_Sym, ptr %11, i64 %indvars.iv54
  %.sroa.0.0.copyload.us27.us = load i32, ptr %32, align 8
  %33 = tail call i32 @llvm.bswap.i32(i32 %.sroa.0.0.copyload.us27.us)
  %34 = zext i32 %33 to i64
  %35 = getelementptr inbounds nuw i8, ptr %18, i64 %34
  %36 = tail call i32 @strcmp(ptr noundef nonnull dereferenceable(1) %20, ptr noundef nonnull dereferenceable(1) %35) #17
  %37 = icmp eq i32 %36, 0
  br i1 %37, label %38, label %41

38:                                               ; preds = %.lr.ph.split.split.us.split.us
  %.sroa.8.0..sroa_idx.us28.us = getelementptr inbounds nuw i8, ptr %32, i64 8
  %.sroa.8.0.copyload.us29.us = load i64, ptr %.sroa.8.0..sroa_idx.us28.us, align 8
  %39 = tail call i64 @llvm.bswap.i64(i64 %.sroa.8.0.copyload.us29.us)
  %40 = trunc i64 %39 to i32
  store i32 %40, ptr @sigreturn_addr, align 4, !tbaa !11
  br label %41

41:                                               ; preds = %.lr.ph.split.split.us.split.us, %38
  %indvars.iv.next55 = add nuw nsw i64 %indvars.iv54, 1
  %exitcond58.not = icmp eq i64 %indvars.iv.next55, %wide.trip.count57
  br i1 %exitcond58.not, label %._crit_edge, label %.lr.ph.split.split.us.split.us, !llvm.loop !106

.lr.ph.split.split.us.split:                      ; preds = %.lr.ph.split.split.us, %49
  %indvars.iv49 = phi i64 [ %indvars.iv.next50, %49 ], [ 0, %.lr.ph.split.split.us ]
  %42 = getelementptr inbounds nuw %struct.Elf64_Sym, ptr %11, i64 %indvars.iv49
  %.sroa.0.0.copyload.us27 = load i32, ptr %42, align 8
  %43 = zext i32 %.sroa.0.0.copyload.us27 to i64
  %44 = getelementptr inbounds nuw i8, ptr %18, i64 %43
  %45 = tail call i32 @strcmp(ptr noundef nonnull dereferenceable(1) %20, ptr noundef nonnull dereferenceable(1) %44) #17
  %46 = icmp eq i32 %45, 0
  br i1 %46, label %47, label %49

47:                                               ; preds = %.lr.ph.split.split.us.split
  %.sroa.8.0..sroa_idx.us28 = getelementptr inbounds nuw i8, ptr %42, i64 8
  %.sroa.8.0.copyload.us29 = load i64, ptr %.sroa.8.0..sroa_idx.us28, align 8
  %48 = trunc i64 %.sroa.8.0.copyload.us29 to i32
  store i32 %48, ptr @sigreturn_addr, align 4, !tbaa !11
  br label %49

49:                                               ; preds = %47, %.lr.ph.split.split.us.split
  %indvars.iv.next50 = add nuw nsw i64 %indvars.iv49, 1
  %exitcond53.not = icmp eq i64 %indvars.iv.next50, %wide.trip.count57
  br i1 %exitcond53.not, label %._crit_edge, label %.lr.ph.split.split.us.split, !llvm.loop !106

.lr.ph.split.split:                               ; preds = %.lr.ph.split
  br i1 %3, label %.lr.ph.split.split.split.us, label %.lr.ph.split.split.split

.lr.ph.split.split.split.us:                      ; preds = %.lr.ph.split.split, %64
  %indvars.iv44 = phi i64 [ %indvars.iv.next45, %64 ], [ 0, %.lr.ph.split.split ]
  %50 = getelementptr inbounds nuw %struct.Elf64_Sym, ptr %11, i64 %indvars.iv44
  %.sroa.0.0.copyload.us33 = load i32, ptr %50, align 8
  %.sroa.8.0..sroa_idx.us34 = getelementptr inbounds nuw i8, ptr %50, i64 8
  %.sroa.8.0.copyload.us35 = load i64, ptr %.sroa.8.0..sroa_idx.us34, align 8
  %51 = tail call i32 @llvm.bswap.i32(i32 %.sroa.0.0.copyload.us33)
  %52 = tail call i64 @llvm.bswap.i64(i64 %.sroa.8.0.copyload.us35)
  %53 = zext i32 %51 to i64
  %54 = getelementptr inbounds nuw i8, ptr %18, i64 %53
  %55 = tail call i32 @strcmp(ptr noundef nonnull dereferenceable(1) %20, ptr noundef nonnull dereferenceable(1) %54) #17
  %56 = icmp eq i32 %55, 0
  br i1 %56, label %57, label %59

57:                                               ; preds = %.lr.ph.split.split.split.us
  %58 = trunc i64 %52 to i32
  store i32 %58, ptr @sigreturn_addr, align 4, !tbaa !11
  br label %59

59:                                               ; preds = %.lr.ph.split.split.split.us, %57
  %60 = tail call i32 @strcmp(ptr noundef nonnull dereferenceable(1) %21, ptr noundef nonnull dereferenceable(1) %54) #17
  %61 = icmp eq i32 %60, 0
  br i1 %61, label %62, label %64

62:                                               ; preds = %59
  %63 = trunc i64 %52 to i32
  store i32 %63, ptr @rt_sigreturn_addr, align 4, !tbaa !11
  br label %64

64:                                               ; preds = %62, %59
  %indvars.iv.next45 = add nuw nsw i64 %indvars.iv44, 1
  %exitcond48.not = icmp eq i64 %indvars.iv.next45, %wide.trip.count57
  br i1 %exitcond48.not, label %._crit_edge, label %.lr.ph.split.split.split.us, !llvm.loop !106

._crit_edge:                                      ; preds = %77, %64, %49, %41, %31, %.lr.ph.split.us, %4
  ret void

.lr.ph.split.split.split:                         ; preds = %.lr.ph.split.split, %77
  %indvars.iv = phi i64 [ %indvars.iv.next, %77 ], [ 0, %.lr.ph.split.split ]
  %65 = getelementptr inbounds nuw %struct.Elf64_Sym, ptr %11, i64 %indvars.iv
  %.sroa.0.0.copyload = load i32, ptr %65, align 8
  %.sroa.8.0..sroa_idx = getelementptr inbounds nuw i8, ptr %65, i64 8
  %.sroa.8.0.copyload = load i64, ptr %.sroa.8.0..sroa_idx, align 8
  %66 = zext i32 %.sroa.0.0.copyload to i64
  %67 = getelementptr inbounds nuw i8, ptr %18, i64 %66
  %68 = tail call i32 @strcmp(ptr noundef nonnull dereferenceable(1) %20, ptr noundef nonnull dereferenceable(1) %67) #17
  %69 = icmp eq i32 %68, 0
  br i1 %69, label %70, label %72

70:                                               ; preds = %.lr.ph.split.split.split
  %71 = trunc i64 %.sroa.8.0.copyload to i32
  store i32 %71, ptr @sigreturn_addr, align 4, !tbaa !11
  br label %72

72:                                               ; preds = %70, %.lr.ph.split.split.split
  %73 = tail call i32 @strcmp(ptr noundef nonnull dereferenceable(1) %21, ptr noundef nonnull dereferenceable(1) %67) #17
  %74 = icmp eq i32 %73, 0
  br i1 %74, label %75, label %77

75:                                               ; preds = %72
  %76 = trunc i64 %.sroa.8.0.copyload to i32
  store i32 %76, ptr @rt_sigreturn_addr, align 4, !tbaa !11
  br label %77

77:                                               ; preds = %75, %72
  %indvars.iv.next = add nuw nsw i64 %indvars.iv, 1
  %exitcond.not = icmp eq i64 %indvars.iv.next, %wide.trip.count57
  br i1 %exitcond.not, label %._crit_edge, label %.lr.ph.split.split.split, !llvm.loop !106
}